target datalayout = "e-m:e-p270:32:32-p271:32:32-p272:64:64-i64:64-i128:128-f80:128-n8:16:32:64-S128"
target triple = "x86_64-pc-linux-gnu"

%struct.http2_session_data = type { %struct.http2_stream_data, ptr, ptr, ptr, ptr }
%struct.http2_stream_data = type { ptr, ptr, ptr, i32, i32 }

; Function Attrs: nounwind uwtable
define internal i64 @send_callback(ptr noundef %0, ptr noundef %1, i64 noundef %2, i32 noundef %3, ptr noundef %4) #0 {
  %6 = alloca i64, align 8
  %7 = alloca ptr, align 8
  %8 = alloca ptr, align 8
  %9 = alloca i64, align 8
  %10 = alloca i32, align 4
  %11 = alloca ptr, align 8
  %12 = alloca ptr, align 8
  %13 = alloca ptr, align 8
  %14 = alloca i32, align 4
  store ptr %0, ptr %7, align 8, !tbaa !70
  store ptr %1, ptr %8, align 8, !tbaa !15
  store i64 %2, ptr %9, align 8, !tbaa !60
  store i32 %3, ptr %10, align 4, !tbaa !4
  store ptr %4, ptr %11, align 8, !tbaa !42
  call void @llvm.lifetime.start.p0(i64 8, ptr %12) #11
  %15 = load ptr, ptr %11, align 8, !tbaa !42
  store ptr %15, ptr %12, align 8, !tbaa !44
  call void @llvm.lifetime.start.p0(i64 8, ptr %13) #11
  %16 = load ptr, ptr %12, align 8, !tbaa !44
  %17 = getelementptr inbounds nuw %struct.http2_session_data, ptr %16, i32 0, i32 1
  %18 = load ptr, ptr %17, align 8, !tbaa !46
  store ptr %18, ptr %13, align 8, !tbaa !54
  %19 = load ptr, ptr %12, align 8, !tbaa !44
  %20 = getelementptr inbounds nuw %struct.http2_session_data, ptr %19, i32 0, i32 1
  %21 = load ptr, ptr %20, align 8, !tbaa !46
  %22 = call ptr @bufferevent_get_output(ptr noundef %21)
  %23 = call i64 @evbuffer_get_length(ptr noundef %22)
  %24 = icmp uge i64 %23, 65536
  br i1 %24, label %25, label %26

25:                                               ; preds = %5
  store i64 -504, ptr %6, align 8
  store i32 1, ptr %14, align 4
  br label %32

26:                                               ; preds = %5
  %27 = load ptr, ptr %13, align 8, !tbaa !54
  %28 = load ptr, ptr %8, align 8, !tbaa !15
  %29 = load i64, ptr %9, align 8, !tbaa !60
  %30 = call i32 @bufferevent_write(ptr noundef %27, ptr noundef %28, i64 noundef %29)
  %31 = load i64, ptr %9, align 8, !tbaa !60
  store i64 %31, ptr %6, align 8
  store i32 1, ptr %14, align 4
  br label %32

32:                                               ; preds = %26, %25
  call void @llvm.lifetime.end.p0(i64 8, ptr %13) #11
  call void @llvm.lifetime.end.p0(i64 8, ptr %12) #11
  %33 = load i64, ptr %6, align 8
  ret i64 %33
}