; Function Attrs: nounwind uwtable
define internal noundef i64 @send_callback(ptr readnone captures(none) %0, ptr noundef %1, i64 noundef %2, i32 %3, ptr noundef readonly captures(none) %4) #0 {
  %6 = getelementptr inbounds nuw i8, ptr %4, i64 32
  %7 = load ptr, ptr %6, align 8, !tbaa !36
  %8 = tail call ptr @bufferevent_get_output(ptr noundef %7) #21
  %9 = tail call i64 @evbuffer_get_length(ptr noundef %8) #21
  %10 = icmp ugt i64 %9, 65535
  br i1 %10, label %13, label %11

11:                                               ; preds = %5
  %12 = tail call i32 @bufferevent_write(ptr noundef %7, ptr noundef %1, i64 noundef %2) #21
  br label %13

13:                                               ; preds = %5, %11
  %.0 = phi i64 [ %2, %11 ], [ -504, %5 ]
  ret i64 %.0
}